
jfrac001_lab4_part5.elf:     file format elf32-avr

Sections:
Idx Name          Size      VMA       LMA       File off  Algn
  0 .data         00000000  00800100  00800100  00000436  2**0
                  CONTENTS, ALLOC, LOAD, DATA
  1 .text         000003c2  00000000  00000000  00000074  2**1
                  CONTENTS, ALLOC, LOAD, READONLY, CODE
  2 .bss          00000008  00800100  00800100  00000436  2**0
                  ALLOC
  3 .comment      00000030  00000000  00000000  00000436  2**0
                  CONTENTS, READONLY
  4 .note.gnu.avr.deviceinfo 00000040  00000000  00000000  00000468  2**2
                  CONTENTS, READONLY
  5 .debug_aranges 00000028  00000000  00000000  000004a8  2**0
                  CONTENTS, READONLY, DEBUGGING
  6 .debug_info   00000910  00000000  00000000  000004d0  2**0
                  CONTENTS, READONLY, DEBUGGING
  7 .debug_abbrev 000007de  00000000  00000000  00000de0  2**0
                  CONTENTS, READONLY, DEBUGGING
  8 .debug_line   00000519  00000000  00000000  000015be  2**0
                  CONTENTS, READONLY, DEBUGGING
  9 .debug_frame  00000034  00000000  00000000  00001ad8  2**2
                  CONTENTS, READONLY, DEBUGGING
 10 .debug_str    00000481  00000000  00000000  00001b0c  2**0
                  CONTENTS, READONLY, DEBUGGING
 11 .debug_ranges 00000018  00000000  00000000  00001f8d  2**0
                  CONTENTS, READONLY, DEBUGGING

Disassembly of section .text:

00000000 <__vectors>:
   0:	4e c0       	rjmp	.+156    	; 0x9e <__ctors_end>
   2:	00 00       	nop
   4:	5c c0       	rjmp	.+184    	; 0xbe <__bad_interrupt>
   6:	00 00       	nop
   8:	5a c0       	rjmp	.+180    	; 0xbe <__bad_interrupt>
   a:	00 00       	nop
   c:	58 c0       	rjmp	.+176    	; 0xbe <__bad_interrupt>
   e:	00 00       	nop
  10:	56 c0       	rjmp	.+172    	; 0xbe <__bad_interrupt>
  12:	00 00       	nop
  14:	54 c0       	rjmp	.+168    	; 0xbe <__bad_interrupt>
  16:	00 00       	nop
  18:	52 c0       	rjmp	.+164    	; 0xbe <__bad_interrupt>
  1a:	00 00       	nop
  1c:	50 c0       	rjmp	.+160    	; 0xbe <__bad_interrupt>
  1e:	00 00       	nop
  20:	4e c0       	rjmp	.+156    	; 0xbe <__bad_interrupt>
  22:	00 00       	nop
  24:	4c c0       	rjmp	.+152    	; 0xbe <__bad_interrupt>
  26:	00 00       	nop
  28:	4a c0       	rjmp	.+148    	; 0xbe <__bad_interrupt>
  2a:	00 00       	nop
  2c:	48 c0       	rjmp	.+144    	; 0xbe <__bad_interrupt>
  2e:	00 00       	nop
  30:	46 c0       	rjmp	.+140    	; 0xbe <__bad_interrupt>
  32:	00 00       	nop
  34:	44 c0       	rjmp	.+136    	; 0xbe <__bad_interrupt>
  36:	00 00       	nop
  38:	42 c0       	rjmp	.+132    	; 0xbe <__bad_interrupt>
  3a:	00 00       	nop
  3c:	40 c0       	rjmp	.+128    	; 0xbe <__bad_interrupt>
  3e:	00 00       	nop
  40:	3e c0       	rjmp	.+124    	; 0xbe <__bad_interrupt>
  42:	00 00       	nop
  44:	3c c0       	rjmp	.+120    	; 0xbe <__bad_interrupt>
  46:	00 00       	nop
  48:	3a c0       	rjmp	.+116    	; 0xbe <__bad_interrupt>
  4a:	00 00       	nop
  4c:	38 c0       	rjmp	.+112    	; 0xbe <__bad_interrupt>
  4e:	00 00       	nop
  50:	36 c0       	rjmp	.+108    	; 0xbe <__bad_interrupt>
  52:	00 00       	nop
  54:	34 c0       	rjmp	.+104    	; 0xbe <__bad_interrupt>
  56:	00 00       	nop
  58:	32 c0       	rjmp	.+100    	; 0xbe <__bad_interrupt>
  5a:	00 00       	nop
  5c:	30 c0       	rjmp	.+96     	; 0xbe <__bad_interrupt>
  5e:	00 00       	nop
  60:	2e c0       	rjmp	.+92     	; 0xbe <__bad_interrupt>
  62:	00 00       	nop
  64:	2c c0       	rjmp	.+88     	; 0xbe <__bad_interrupt>
  66:	00 00       	nop
  68:	2a c0       	rjmp	.+84     	; 0xbe <__bad_interrupt>
  6a:	00 00       	nop
  6c:	28 c0       	rjmp	.+80     	; 0xbe <__bad_interrupt>
  6e:	00 00       	nop
  70:	26 c0       	rjmp	.+76     	; 0xbe <__bad_interrupt>
  72:	00 00       	nop
  74:	24 c0       	rjmp	.+72     	; 0xbe <__bad_interrupt>
  76:	00 00       	nop
  78:	22 c0       	rjmp	.+68     	; 0xbe <__bad_interrupt>
  7a:	00 00       	nop
  7c:	20 c0       	rjmp	.+64     	; 0xbe <__bad_interrupt>
  7e:	00 00       	nop
  80:	1e c0       	rjmp	.+60     	; 0xbe <__bad_interrupt>
  82:	00 00       	nop
  84:	1c c0       	rjmp	.+56     	; 0xbe <__bad_interrupt>
  86:	00 00       	nop
  88:	1a c0       	rjmp	.+52     	; 0xbe <__bad_interrupt>
  8a:	00 00       	nop
  8c:	6c 00       	.word	0x006c	; ????
  8e:	70 00       	.word	0x0070	; ????
  90:	8d 00       	.word	0x008d	; ????
  92:	a2 00       	.word	0x00a2	; ????
  94:	de 00       	.word	0x00de	; ????
  96:	26 01       	movw	r4, r12
  98:	40 01       	movw	r8, r0
  9a:	1d 01       	movw	r2, r26
  9c:	14 01       	movw	r2, r8

0000009e <__ctors_end>:
  9e:	11 24       	eor	r1, r1
  a0:	1f be       	out	0x3f, r1	; 63
  a2:	cf ef       	ldi	r28, 0xFF	; 255
  a4:	d0 e4       	ldi	r29, 0x40	; 64
  a6:	de bf       	out	0x3e, r29	; 62
  a8:	cd bf       	out	0x3d, r28	; 61

000000aa <__do_clear_bss>:
  aa:	21 e0       	ldi	r18, 0x01	; 1
  ac:	a0 e0       	ldi	r26, 0x00	; 0
  ae:	b1 e0       	ldi	r27, 0x01	; 1
  b0:	01 c0       	rjmp	.+2      	; 0xb4 <.do_clear_bss_start>

000000b2 <.do_clear_bss_loop>:
  b2:	1d 92       	st	X+, r1

000000b4 <.do_clear_bss_start>:
  b4:	a8 30       	cpi	r26, 0x08	; 8
  b6:	b2 07       	cpc	r27, r18
  b8:	e1 f7       	brne	.-8      	; 0xb2 <.do_clear_bss_loop>
  ba:	6d d1       	rcall	.+730    	; 0x396 <main>
  bc:	80 c1       	rjmp	.+768    	; 0x3be <_exit>

000000be <__bad_interrupt>:
  be:	a0 cf       	rjmp	.-192    	; 0x0 <__vectors>

000000c0 <tick>:
unsigned char count = 0x00;


void tick(){
	
	switch(state)	{		//State Transitions
  c0:	e0 91 07 01 	lds	r30, 0x0107	; 0x800107 <state>
  c4:	8e 2f       	mov	r24, r30
  c6:	90 e0       	ldi	r25, 0x00	; 0
  c8:	89 30       	cpi	r24, 0x09	; 9
  ca:	91 05       	cpc	r25, r1
  cc:	08 f0       	brcs	.+2      	; 0xd0 <tick+0x10>
  ce:	dc c0       	rjmp	.+440    	; 0x288 <tick+0x1c8>
  d0:	fc 01       	movw	r30, r24
  d2:	ea 5b       	subi	r30, 0xBA	; 186
  d4:	ff 4f       	sbci	r31, 0xFF	; 255
  d6:	6a c1       	rjmp	.+724    	; 0x3ac <__tablejump2__>
		
		case(Init):
			state = wait;
  d8:	81 e0       	ldi	r24, 0x01	; 1
  da:	80 93 07 01 	sts	0x0107, r24	; 0x800107 <state>
		break;
  de:	40 c1       	rjmp	.+640    	; 0x360 <tick+0x2a0>
		
		case(wait):
		
			if((x == 0) && (y == 0) && (hash0 & 0x04)){
  e0:	80 91 06 01 	lds	r24, 0x0106	; 0x800106 <x>
  e4:	81 11       	cpse	r24, r1
  e6:	0c c0       	rjmp	.+24     	; 0x100 <tick+0x40>
  e8:	80 91 05 01 	lds	r24, 0x0105	; 0x800105 <y>
  ec:	81 11       	cpse	r24, r1
  ee:	08 c0       	rjmp	.+16     	; 0x100 <tick+0x40>
  f0:	80 91 04 01 	lds	r24, 0x0104	; 0x800104 <hash0>
  f4:	82 ff       	sbrs	r24, 2
  f6:	04 c0       	rjmp	.+8      	; 0x100 <tick+0x40>
				state = pound_pressed;
  f8:	82 e0       	ldi	r24, 0x02	; 2
  fa:	80 93 07 01 	sts	0x0107, r24	; 0x800107 <state>
  fe:	dd c0       	rjmp	.+442    	; 0x2ba <tick+0x1fa>
			}
			
			else if ((locking & 0x80) && (unlocking & 0x01)) {
 100:	80 91 03 01 	lds	r24, 0x0103	; 0x800103 <locking>
 104:	88 23       	and	r24, r24
 106:	0c f0       	brlt	.+2      	; 0x10a <tick+0x4a>
 108:	2b c1       	rjmp	.+598    	; 0x360 <tick+0x2a0>
 10a:	80 91 02 01 	lds	r24, 0x0102	; 0x800102 <unlocking>
 10e:	80 ff       	sbrs	r24, 0
 110:	27 c1       	rjmp	.+590    	; 0x360 <tick+0x2a0>
				state = lock_pressed;
 112:	85 e0       	ldi	r24, 0x05	; 5
 114:	80 93 07 01 	sts	0x0107, r24	; 0x800107 <state>
 118:	0c c1       	rjmp	.+536    	; 0x332 <tick+0x272>
			
		break;
		
		case(pound_pressed):
		
			if((x == 0) && (y == 0) && (hash0 & 0x04)){
 11a:	80 91 06 01 	lds	r24, 0x0106	; 0x800106 <x>
 11e:	81 11       	cpse	r24, r1
 120:	0d c0       	rjmp	.+26     	; 0x13c <tick+0x7c>
 122:	80 91 05 01 	lds	r24, 0x0105	; 0x800105 <y>
 126:	81 11       	cpse	r24, r1
 128:	09 c0       	rjmp	.+18     	; 0x13c <tick+0x7c>
 12a:	80 91 04 01 	lds	r24, 0x0104	; 0x800104 <hash0>
 12e:	82 fd       	sbrc	r24, 2
 130:	c4 c0       	rjmp	.+392    	; 0x2ba <tick+0x1fa>
 132:	2b c1       	rjmp	.+598    	; 0x38a <tick+0x2ca>
				state = pound_pressed;
			}
			else if((x == 0) && (y == 0) && (hash0 == 0)){
				state = pound_lift_up;
 134:	83 e0       	ldi	r24, 0x03	; 3
 136:	80 93 07 01 	sts	0x0107, r24	; 0x800107 <state>
 13a:	d2 c0       	rjmp	.+420    	; 0x2e0 <tick+0x220>
			}
			
			else{
				state = wait;
 13c:	81 e0       	ldi	r24, 0x01	; 1
 13e:	80 93 07 01 	sts	0x0107, r24	; 0x800107 <state>
 142:	0e c1       	rjmp	.+540    	; 0x360 <tick+0x2a0>
			}
			
		break;
		
		case(pound_lift_up):
			if(count == 0){
 144:	80 91 00 01 	lds	r24, 0x0100	; 0x800100 <_edata>
 148:	81 11       	cpse	r24, r1
 14a:	10 c0       	rjmp	.+32     	; 0x16c <tick+0xac>
				if((x & 0x01) && (y == 0) && (hash0 == 0)){
 14c:	90 91 06 01 	lds	r25, 0x0106	; 0x800106 <x>
 150:	90 ff       	sbrs	r25, 0
 152:	c6 c0       	rjmp	.+396    	; 0x2e0 <tick+0x220>
 154:	90 91 05 01 	lds	r25, 0x0105	; 0x800105 <y>
 158:	91 11       	cpse	r25, r1
 15a:	c2 c0       	rjmp	.+388    	; 0x2e0 <tick+0x220>
 15c:	90 91 04 01 	lds	r25, 0x0104	; 0x800104 <hash0>
 160:	91 11       	cpse	r25, r1
 162:	be c0       	rjmp	.+380    	; 0x2e0 <tick+0x220>
					state = open;
 164:	94 e0       	ldi	r25, 0x04	; 4
 166:	90 93 07 01 	sts	0x0107, r25	; 0x800107 <state>
 16a:	cd c0       	rjmp	.+410    	; 0x306 <tick+0x246>
				}
			}
			
			else if(count & 0x01){
 16c:	80 ff       	sbrs	r24, 0
 16e:	10 c0       	rjmp	.+32     	; 0x190 <tick+0xd0>
				if((x == 0) && (y & 0x02) && (hash0 == 0)){
 170:	90 91 06 01 	lds	r25, 0x0106	; 0x800106 <x>
 174:	91 11       	cpse	r25, r1
 176:	b4 c0       	rjmp	.+360    	; 0x2e0 <tick+0x220>
 178:	90 91 05 01 	lds	r25, 0x0105	; 0x800105 <y>
 17c:	91 ff       	sbrs	r25, 1
 17e:	b0 c0       	rjmp	.+352    	; 0x2e0 <tick+0x220>
 180:	90 91 04 01 	lds	r25, 0x0104	; 0x800104 <hash0>
 184:	91 11       	cpse	r25, r1
 186:	ac c0       	rjmp	.+344    	; 0x2e0 <tick+0x220>
					state = open;
 188:	94 e0       	ldi	r25, 0x04	; 4
 18a:	90 93 07 01 	sts	0x0107, r25	; 0x800107 <state>
 18e:	bb c0       	rjmp	.+374    	; 0x306 <tick+0x246>
				}
			}
			
			else if(count & 0x02){
 190:	81 ff       	sbrs	r24, 1
 192:	10 c0       	rjmp	.+32     	; 0x1b4 <tick+0xf4>
				if((x & 0x01) && (y == 0) && (hash0 == 0)){
 194:	90 91 06 01 	lds	r25, 0x0106	; 0x800106 <x>
 198:	90 ff       	sbrs	r25, 0
 19a:	a2 c0       	rjmp	.+324    	; 0x2e0 <tick+0x220>
 19c:	90 91 05 01 	lds	r25, 0x0105	; 0x800105 <y>
 1a0:	91 11       	cpse	r25, r1
 1a2:	9e c0       	rjmp	.+316    	; 0x2e0 <tick+0x220>
 1a4:	90 91 04 01 	lds	r25, 0x0104	; 0x800104 <hash0>
 1a8:	91 11       	cpse	r25, r1
 1aa:	9a c0       	rjmp	.+308    	; 0x2e0 <tick+0x220>
					state = open;
 1ac:	94 e0       	ldi	r25, 0x04	; 4
 1ae:	90 93 07 01 	sts	0x0107, r25	; 0x800107 <state>
 1b2:	a9 c0       	rjmp	.+338    	; 0x306 <tick+0x246>
				}
			}
			
			else{
				state = wait;				
 1b4:	81 e0       	ldi	r24, 0x01	; 1
 1b6:	80 93 07 01 	sts	0x0107, r24	; 0x800107 <state>
 1ba:	d2 c0       	rjmp	.+420    	; 0x360 <tick+0x2a0>
			
		break;
		
		case(open):
		
			if(count < 3){
 1bc:	80 91 00 01 	lds	r24, 0x0100	; 0x800100 <_edata>
 1c0:	83 30       	cpi	r24, 0x03	; 3
 1c2:	20 f4       	brcc	.+8      	; 0x1cc <tick+0x10c>
				state = pound_lift_up;
 1c4:	83 e0       	ldi	r24, 0x03	; 3
 1c6:	80 93 07 01 	sts	0x0107, r24	; 0x800107 <state>
 1ca:	8a c0       	rjmp	.+276    	; 0x2e0 <tick+0x220>
			}
		
			else{
				if(lockcheck == 0){
 1cc:	80 91 01 01 	lds	r24, 0x0101	; 0x800101 <lockcheck>
 1d0:	81 11       	cpse	r24, r1
 1d2:	15 c0       	rjmp	.+42     	; 0x1fe <tick+0x13e>
					state = unlock;
 1d4:	97 e0       	ldi	r25, 0x07	; 7
 1d6:	90 93 07 01 	sts	0x0107, r25	; 0x800107 <state>
			PORTC = state;
			
		break;
		
		case(unlock):
			x = PINA & 0x01;
 1da:	80 b1       	in	r24, 0x00	; 0
 1dc:	81 70       	andi	r24, 0x01	; 1
 1de:	80 93 06 01 	sts	0x0106, r24	; 0x800106 <x>
			y = PINA & 0x02;
 1e2:	80 b1       	in	r24, 0x00	; 0
 1e4:	82 70       	andi	r24, 0x02	; 2
 1e6:	80 93 05 01 	sts	0x0105, r24	; 0x800105 <y>
			hash0 = PINA & 0x04;
 1ea:	80 b1       	in	r24, 0x00	; 0
 1ec:	84 70       	andi	r24, 0x04	; 4
 1ee:	80 93 04 01 	sts	0x0104, r24	; 0x800104 <hash0>
			locking = PINA & 0x80;
 1f2:	80 b1       	in	r24, 0x00	; 0
 1f4:	80 78       	andi	r24, 0x80	; 128
 1f6:	80 93 03 01 	sts	0x0103, r24	; 0x800103 <locking>
			
			PORTC = state;
 1fa:	98 b9       	out	0x08, r25	; 8
			
		break;
 1fc:	08 95       	ret
				if(lockcheck == 0){
					state = unlock;
				}
				
				else{
					state = lock;
 1fe:	98 e0       	ldi	r25, 0x08	; 8
 200:	90 93 07 01 	sts	0x0107, r25	; 0x800107 <state>
			
		break;
		
		case(lock):
			
			x = PINA & 0x01;
 204:	80 b1       	in	r24, 0x00	; 0
 206:	81 70       	andi	r24, 0x01	; 1
 208:	80 93 06 01 	sts	0x0106, r24	; 0x800106 <x>
			y = PINA & 0x02;
 20c:	80 b1       	in	r24, 0x00	; 0
 20e:	82 70       	andi	r24, 0x02	; 2
 210:	80 93 05 01 	sts	0x0105, r24	; 0x800105 <y>
			hash0 = PINA & 0x04;
 214:	80 b1       	in	r24, 0x00	; 0
 216:	84 70       	andi	r24, 0x04	; 4
 218:	80 93 04 01 	sts	0x0104, r24	; 0x800104 <hash0>
			locking = PINA & 0x80;
 21c:	80 b1       	in	r24, 0x00	; 0
 21e:	80 78       	andi	r24, 0x80	; 128
 220:	80 93 03 01 	sts	0x0103, r24	; 0x800103 <locking>
			
			PORTC = state;
 224:	98 b9       	out	0x08, r25	; 8
			
		break;
 226:	08 95       	ret
			}
			
		break;
		
		case(lock):	
			lockcheck = 0x00;
 228:	10 92 01 01 	sts	0x0101, r1	; 0x800101 <lockcheck>
			unlocking = 0x00;
 22c:	10 92 02 01 	sts	0x0102, r1	; 0x800102 <unlocking>
			PORTB = unlocking;
 230:	15 b8       	out	0x05, r1	; 5
			state = wait;
 232:	81 e0       	ldi	r24, 0x01	; 1
 234:	80 93 07 01 	sts	0x0107, r24	; 0x800107 <state>
		break;
 238:	93 c0       	rjmp	.+294    	; 0x360 <tick+0x2a0>
		
		case(unlock):
			lockcheck = 0x01;
 23a:	81 e0       	ldi	r24, 0x01	; 1
 23c:	80 93 01 01 	sts	0x0101, r24	; 0x800101 <lockcheck>
			unlocking = 0x01;
 240:	80 93 02 01 	sts	0x0102, r24	; 0x800102 <unlocking>
			PORTB = unlocking;
 244:	85 b9       	out	0x05, r24	; 5
			state = wait;
 246:	80 93 07 01 	sts	0x0107, r24	; 0x800107 <state>
		break;
 24a:	8a c0       	rjmp	.+276    	; 0x360 <tick+0x2a0>
		
		case(lock_pressed):
			if(locking & 0x80){
 24c:	80 91 03 01 	lds	r24, 0x0103	; 0x800103 <locking>
 250:	88 23       	and	r24, r24
 252:	0c f4       	brge	.+2      	; 0x256 <tick+0x196>
 254:	6e c0       	rjmp	.+220    	; 0x332 <tick+0x272>
				state = lock_pressed;
			}
			else{
				state = lock_lift_up;
 256:	96 e0       	ldi	r25, 0x06	; 6
 258:	90 93 07 01 	sts	0x0107, r25	; 0x800107 <state>
			
			PORTC = state;
		break;
		
		case(lock_lift_up):
			x = PINA & 0x01;
 25c:	80 b1       	in	r24, 0x00	; 0
 25e:	81 70       	andi	r24, 0x01	; 1
 260:	80 93 06 01 	sts	0x0106, r24	; 0x800106 <x>
			y = PINA & 0x02;
 264:	80 b1       	in	r24, 0x00	; 0
 266:	82 70       	andi	r24, 0x02	; 2
 268:	80 93 05 01 	sts	0x0105, r24	; 0x800105 <y>
			hash0 = PINA & 0x04;
 26c:	80 b1       	in	r24, 0x00	; 0
 26e:	84 70       	andi	r24, 0x04	; 4
 270:	80 93 04 01 	sts	0x0104, r24	; 0x800104 <hash0>
			locking = PINA & 0x80;
 274:	80 b1       	in	r24, 0x00	; 0
 276:	80 78       	andi	r24, 0x80	; 128
 278:	80 93 03 01 	sts	0x0103, r24	; 0x800103 <locking>
			
			PORTC = state;
 27c:	98 b9       	out	0x08, r25	; 8
		break;
 27e:	08 95       	ret
				state = lock_lift_up;
			}
		break;
		
		case(lock_lift_up):
			state = wait;
 280:	81 e0       	ldi	r24, 0x01	; 1
 282:	80 93 07 01 	sts	0x0107, r24	; 0x800107 <state>
		break;
 286:	6c c0       	rjmp	.+216    	; 0x360 <tick+0x2a0>
		
		default:
			state = Init;
 288:	10 92 07 01 	sts	0x0107, r1	; 0x800107 <state>
		break;
	}
	
	switch(state){		//State Actions
		case(Init):
			x = PINA & 0x01;
 28c:	80 b1       	in	r24, 0x00	; 0
 28e:	81 70       	andi	r24, 0x01	; 1
 290:	80 93 06 01 	sts	0x0106, r24	; 0x800106 <x>
			y = PINA & 0x02;
 294:	80 b1       	in	r24, 0x00	; 0
 296:	82 70       	andi	r24, 0x02	; 2
 298:	80 93 05 01 	sts	0x0105, r24	; 0x800105 <y>
			hash0 = PINA & 0x04;
 29c:	80 b1       	in	r24, 0x00	; 0
 29e:	84 70       	andi	r24, 0x04	; 4
 2a0:	80 93 04 01 	sts	0x0104, r24	; 0x800104 <hash0>
			locking = PINA & 0x80;
 2a4:	80 b1       	in	r24, 0x00	; 0
 2a6:	80 78       	andi	r24, 0x80	; 128
 2a8:	80 93 03 01 	sts	0x0103, r24	; 0x800103 <locking>
			
			unlocking = 0x00;
 2ac:	10 92 02 01 	sts	0x0102, r1	; 0x800102 <unlocking>
			PORTB = unlocking;
 2b0:	15 b8       	out	0x05, r1	; 5
			PORTC = state;
 2b2:	80 91 07 01 	lds	r24, 0x0107	; 0x800107 <state>
 2b6:	88 b9       	out	0x08, r24	; 8
		
		default:
			state = Init;
		break;
	}
}
 2b8:	08 95       	ret
			count = 0x00;
			PORTC = state;
		break;
		
		case(pound_pressed):
			x = PINA & 0x01;
 2ba:	80 b1       	in	r24, 0x00	; 0
 2bc:	81 70       	andi	r24, 0x01	; 1
 2be:	80 93 06 01 	sts	0x0106, r24	; 0x800106 <x>
			y = PINA & 0x02;
 2c2:	80 b1       	in	r24, 0x00	; 0
 2c4:	82 70       	andi	r24, 0x02	; 2
 2c6:	80 93 05 01 	sts	0x0105, r24	; 0x800105 <y>
			hash0 = PINA & 0x04;
 2ca:	80 b1       	in	r24, 0x00	; 0
 2cc:	84 70       	andi	r24, 0x04	; 4
 2ce:	80 93 04 01 	sts	0x0104, r24	; 0x800104 <hash0>
			locking = PINA & 0x80;
 2d2:	80 b1       	in	r24, 0x00	; 0
 2d4:	80 78       	andi	r24, 0x80	; 128
 2d6:	80 93 03 01 	sts	0x0103, r24	; 0x800103 <locking>
			
			PORTC = state;
 2da:	82 e0       	ldi	r24, 0x02	; 2
 2dc:	88 b9       	out	0x08, r24	; 8
		break;
 2de:	08 95       	ret
		
		case(pound_lift_up):
			x = PINA & 0x01;
 2e0:	80 b1       	in	r24, 0x00	; 0
 2e2:	81 70       	andi	r24, 0x01	; 1
 2e4:	80 93 06 01 	sts	0x0106, r24	; 0x800106 <x>
			y = PINA & 0x02;
 2e8:	80 b1       	in	r24, 0x00	; 0
 2ea:	82 70       	andi	r24, 0x02	; 2
 2ec:	80 93 05 01 	sts	0x0105, r24	; 0x800105 <y>
			hash0 = PINA & 0x04;
 2f0:	80 b1       	in	r24, 0x00	; 0
 2f2:	84 70       	andi	r24, 0x04	; 4
 2f4:	80 93 04 01 	sts	0x0104, r24	; 0x800104 <hash0>
			locking = PINA & 0x80;
 2f8:	80 b1       	in	r24, 0x00	; 0
 2fa:	80 78       	andi	r24, 0x80	; 128
 2fc:	80 93 03 01 	sts	0x0103, r24	; 0x800103 <locking>
			
			PORTC = state;
 300:	83 e0       	ldi	r24, 0x03	; 3
 302:	88 b9       	out	0x08, r24	; 8
		break;
 304:	08 95       	ret
		
		case(open):
		
			x = PINA & 0x01;
 306:	90 b1       	in	r25, 0x00	; 0
 308:	91 70       	andi	r25, 0x01	; 1
 30a:	90 93 06 01 	sts	0x0106, r25	; 0x800106 <x>
			y = PINA & 0x02;
 30e:	90 b1       	in	r25, 0x00	; 0
 310:	92 70       	andi	r25, 0x02	; 2
 312:	90 93 05 01 	sts	0x0105, r25	; 0x800105 <y>
			hash0 = PINA & 0x04;
 316:	90 b1       	in	r25, 0x00	; 0
 318:	94 70       	andi	r25, 0x04	; 4
 31a:	90 93 04 01 	sts	0x0104, r25	; 0x800104 <hash0>
			locking = PINA & 0x80;
 31e:	90 b1       	in	r25, 0x00	; 0
 320:	90 78       	andi	r25, 0x80	; 128
 322:	90 93 03 01 	sts	0x0103, r25	; 0x800103 <locking>
			count++;
 326:	8f 5f       	subi	r24, 0xFF	; 255
 328:	80 93 00 01 	sts	0x0100, r24	; 0x800100 <_edata>
			PORTC = state;
 32c:	84 e0       	ldi	r24, 0x04	; 4
 32e:	88 b9       	out	0x08, r24	; 8
			
		break;
 330:	08 95       	ret
			PORTC = state;
			
		break;
		
		case(lock_pressed):
			unlocking = 0x00;
 332:	10 92 02 01 	sts	0x0102, r1	; 0x800102 <unlocking>
			PORTB = unlocking;
 336:	15 b8       	out	0x05, r1	; 5
			
			x = PINA & 0x01;
 338:	80 b1       	in	r24, 0x00	; 0
 33a:	81 70       	andi	r24, 0x01	; 1
 33c:	80 93 06 01 	sts	0x0106, r24	; 0x800106 <x>
			y = PINA & 0x02;
 340:	80 b1       	in	r24, 0x00	; 0
 342:	82 70       	andi	r24, 0x02	; 2
 344:	80 93 05 01 	sts	0x0105, r24	; 0x800105 <y>
			hash0 = PINA & 0x04;
 348:	80 b1       	in	r24, 0x00	; 0
 34a:	84 70       	andi	r24, 0x04	; 4
 34c:	80 93 04 01 	sts	0x0104, r24	; 0x800104 <hash0>
			locking = PINA & 0x80;
 350:	80 b1       	in	r24, 0x00	; 0
 352:	80 78       	andi	r24, 0x80	; 128
 354:	80 93 03 01 	sts	0x0103, r24	; 0x800103 <locking>
			
			PORTC = state;
 358:	80 91 07 01 	lds	r24, 0x0107	; 0x800107 <state>
 35c:	88 b9       	out	0x08, r24	; 8
		break;
 35e:	08 95       	ret
			PORTB = unlocking;
			PORTC = state;
		break;
		
		case(wait):
			x = PINA & 0x01;
 360:	80 b1       	in	r24, 0x00	; 0
 362:	81 70       	andi	r24, 0x01	; 1
 364:	80 93 06 01 	sts	0x0106, r24	; 0x800106 <x>
			y = PINA & 0x02;
 368:	80 b1       	in	r24, 0x00	; 0
 36a:	82 70       	andi	r24, 0x02	; 2
 36c:	80 93 05 01 	sts	0x0105, r24	; 0x800105 <y>
			hash0 = PINA & 0x04;
 370:	80 b1       	in	r24, 0x00	; 0
 372:	84 70       	andi	r24, 0x04	; 4
 374:	80 93 04 01 	sts	0x0104, r24	; 0x800104 <hash0>
			locking = PINA & 0x80;
 378:	80 b1       	in	r24, 0x00	; 0
 37a:	80 78       	andi	r24, 0x80	; 128
 37c:	80 93 03 01 	sts	0x0103, r24	; 0x800103 <locking>
			count = 0x00;
 380:	10 92 00 01 	sts	0x0100, r1	; 0x800100 <_edata>
			PORTC = state;
 384:	81 e0       	ldi	r24, 0x01	; 1
 386:	88 b9       	out	0x08, r24	; 8
		break;
 388:	08 95       	ret
		case(pound_pressed):
		
			if((x == 0) && (y == 0) && (hash0 & 0x04)){
				state = pound_pressed;
			}
			else if((x == 0) && (y == 0) && (hash0 == 0)){
 38a:	80 91 04 01 	lds	r24, 0x0104	; 0x800104 <hash0>
 38e:	88 23       	and	r24, r24
 390:	09 f4       	brne	.+2      	; 0x394 <tick+0x2d4>
 392:	d0 ce       	rjmp	.-608    	; 0x134 <tick+0x74>
 394:	d3 ce       	rjmp	.-602    	; 0x13c <tick+0x7c>

00000396 <main>:
}


int main(void)
{
	DDRA = 0x00; PINA = 0xFF;
 396:	11 b8       	out	0x01, r1	; 1
 398:	8f ef       	ldi	r24, 0xFF	; 255
 39a:	80 b9       	out	0x00, r24	; 0
	DDRB = 0xFF; PINB = 0x00;
 39c:	84 b9       	out	0x04, r24	; 4
 39e:	13 b8       	out	0x03, r1	; 3
	DDRC = 0xFF; PINC = 0x00;
 3a0:	87 b9       	out	0x07, r24	; 7
 3a2:	16 b8       	out	0x06, r1	; 6

	state = Init;
 3a4:	10 92 07 01 	sts	0x0107, r1	; 0x800107 <state>
	
	while (1)
	{
		tick();
 3a8:	8b de       	rcall	.-746    	; 0xc0 <tick>
 3aa:	fe cf       	rjmp	.-4      	; 0x3a8 <main+0x12>

000003ac <__tablejump2__>:
 3ac:	ee 0f       	add	r30, r30
 3ae:	ff 1f       	adc	r31, r31
 3b0:	00 24       	eor	r0, r0
 3b2:	00 1c       	adc	r0, r0
 3b4:	0b be       	out	0x3b, r0	; 59
 3b6:	07 90       	elpm	r0, Z+
 3b8:	f6 91       	elpm	r31, Z
 3ba:	e0 2d       	mov	r30, r0
 3bc:	09 94       	ijmp

000003be <_exit>:
 3be:	f8 94       	cli

000003c0 <__stop_program>:
 3c0:	ff cf       	rjmp	.-2      	; 0x3c0 <__stop_program>
